target datalayout = "e-m:e-p270:32:32-p271:32:32-p272:64:64-i64:64-i128:128-f80:128-n8:16:32:64-S128"
target triple = "x86_64-pc-linux-gnu"

%"class.std::shared_ptr" = type { %"class.std::__shared_ptr" }
%"class.std::__shared_ptr" = type { ptr, %"class.std::__shared_count" }
%"class.std::__shared_count" = type { ptr }
%"class.gmx::internal::AnalysisNeighborhoodPairSearchImpl" = type <{ ptr, i8, [3 x i8], i32, ptr, ptr, ptr, %"class.gmx::ArrayRef", i32, [3 x float], i32, float, [3 x float], i32, [3 x float], i32, [3 x i32], [3 x i32], i32, [4 x i8] }>
%"class.gmx::ArrayRef" = type { %"struct.gmx::ArrayRefIter", %"struct.gmx::ArrayRefIter" }
%"struct.gmx::ArrayRefIter" = type { ptr }
%"class.gmx::AnalysisNeighborhoodPairSearch" = type { %"class.std::shared_ptr" }

; Function Attrs: mustprogress nounwind uwtable
define linkonce_odr noundef ptr @_ZNKSt12__shared_ptrIN3gmx8internal34AnalysisNeighborhoodPairSearchImplELN9__gnu_cxx12_Lock_policyE2EE3getEv(ptr noundef nonnull align 8 dereferenceable(16) %0) #1 comdat align 2 {
  %2 = alloca ptr, align 8
  store ptr %0, ptr %2, align 8, !tbaa !109
  %3 = load ptr, ptr %2, align 8
  %4 = getelementptr inbounds nuw %"class.std::__shared_ptr", ptr %3, i32 0, i32 0
  %5 = load ptr, ptr %4, align 8, !tbaa !173
  ret ptr %5
}

; Function Attrs: mustprogress nounwind uwtable
define linkonce_odr noundef ptr @_ZNKSt19__shared_ptr_accessIN3gmx8internal34AnalysisNeighborhoodPairSearchImplELN9__gnu_cxx12_Lock_policyE2ELb0ELb0EE6_M_getEv(ptr noundef nonnull align 1 dereferenceable(1) %0) #1 comdat align 2 {
  %2 = alloca ptr, align 8
  store ptr %0, ptr %2, align 8, !tbaa !464
  %3 = load ptr, ptr %2, align 8
  %4 = call noundef ptr @_ZNKSt12__shared_ptrIN3gmx8internal34AnalysisNeighborhoodPairSearchImplELN9__gnu_cxx12_Lock_policyE2EE3getEv(ptr noundef nonnull align 8 dereferenceable(16) %3) #20
  ret ptr %4
}

; Function Attrs: mustprogress uwtable
define void @_ZN3gmx8internal34AnalysisNeighborhoodPairSearchImpl16nextTestPositionEv(ptr noundef nonnull align 8 dereferenceable(140) %0) #0 align 2 {
  %2 = alloca ptr, align 8
  store ptr %0, ptr %2, align 8, !tbaa !162
  %3 = load ptr, ptr %2, align 8
  %4 = getelementptr inbounds nuw %"class.gmx::internal::AnalysisNeighborhoodPairSearchImpl", ptr %3, i32 0, i32 8
  %5 = load i32, ptr %4, align 8, !tbaa !177
  %6 = getelementptr inbounds nuw %"class.gmx::internal::AnalysisNeighborhoodPairSearchImpl", ptr %3, i32 0, i32 3
  %7 = load i32, ptr %6, align 4, !tbaa !168
  %8 = icmp slt i32 %5, %7
  br i1 %8, label %9, label %15

9:                                                ; preds = %1
  %10 = getelementptr inbounds nuw %"class.gmx::internal::AnalysisNeighborhoodPairSearchImpl", ptr %3, i32 0, i32 8
  %11 = load i32, ptr %10, align 8, !tbaa !177
  %12 = add nsw i32 %11, 1
  store i32 %12, ptr %10, align 8, !tbaa !177
  %13 = getelementptr inbounds nuw %"class.gmx::internal::AnalysisNeighborhoodPairSearchImpl", ptr %3, i32 0, i32 8
  %14 = load i32, ptr %13, align 8, !tbaa !177
  call void @_ZN3gmx8internal34AnalysisNeighborhoodPairSearchImpl5resetEi(ptr noundef nonnull align 8 dereferenceable(140) %3, i32 noundef %14)
  br label %15

15:                                               ; preds = %9, %1
  ret void
}

; Function Attrs: mustprogress nounwind uwtable
define linkonce_odr noundef ptr @_ZNKSt19__shared_ptr_accessIN3gmx8internal34AnalysisNeighborhoodPairSearchImplELN9__gnu_cxx12_Lock_policyE2ELb0ELb0EEptEv(ptr noundef nonnull align 1 dereferenceable(1) %0) #1 comdat align 2 {
  %2 = alloca ptr, align 8
  store ptr %0, ptr %2, align 8, !tbaa !464
  %3 = load ptr, ptr %2, align 8
  %4 = call noundef ptr @_ZNKSt19__shared_ptr_accessIN3gmx8internal34AnalysisNeighborhoodPairSearchImplELN9__gnu_cxx12_Lock_policyE2ELb0ELb0EE6_M_getEv(ptr noundef nonnull align 1 dereferenceable(1) %3) #20
  ret ptr %4
}

; Function Attrs: mustprogress uwtable
define void @_ZN3gmx30AnalysisNeighborhoodPairSearch33skipRemainingPairsForTestPositionEv(ptr noundef nonnull align 8 dereferenceable(16) %0) #0 align 2 {
  %2 = alloca ptr, align 8
  store ptr %0, ptr %2, align 8, !tbaa !466
  %3 = load ptr, ptr %2, align 8
  %4 = getelementptr inbounds nuw %"class.gmx::AnalysisNeighborhoodPairSearch", ptr %3, i32 0, i32 0
  %5 = call noundef ptr @_ZNKSt19__shared_ptr_accessIN3gmx8internal34AnalysisNeighborhoodPairSearchImplELN9__gnu_cxx12_Lock_policyE2ELb0ELb0EEptEv(ptr noundef nonnull align 1 dereferenceable(1) %4) #20
  call void @_ZN3gmx8internal34AnalysisNeighborhoodPairSearchImpl16nextTestPositionEv(ptr noundef nonnull align 8 dereferenceable(140) %5)
  ret void
}