; Function Attrs: mustprogress nofree nounwind memory(readwrite, inaccessiblemem: write) uwtable
define void @_ZN3gmx30AnalysisNeighborhoodPairSearch33skipRemainingPairsForTestPositionEv(ptr noundef nonnull readonly align 8 captures(none) dereferenceable(16) %0) local_unnamed_addr #26 align 2 {
  %2 = load ptr, ptr %0, align 8, !tbaa !67
  %3 = getelementptr inbounds nuw i8, ptr %2, i64 56
  %4 = load i32, ptr %3, align 8, !tbaa !78
  %5 = getelementptr inbounds nuw i8, ptr %2, i64 12
  %6 = load i32, ptr %5, align 4, !tbaa !180
  %7 = icmp slt i32 %4, %6
  br i1 %7, label %8, label %_ZN3gmx8internal34AnalysisNeighborhoodPairSearchImpl16nextTestPositionEv.exit

8:                                                ; preds = %1
  %9 = add nsw i32 %4, 1
  store i32 %9, ptr %3, align 8, !tbaa !78
  tail call void @_ZN3gmx8internal34AnalysisNeighborhoodPairSearchImpl5resetEi(ptr noundef nonnull align 8 dereferenceable(140) %2, i32 noundef %9)
  br label %_ZN3gmx8internal34AnalysisNeighborhoodPairSearchImpl16nextTestPositionEv.exit

_ZN3gmx8internal34AnalysisNeighborhoodPairSearchImpl16nextTestPositionEv.exit: ; preds = %1, %8
  ret void
}